; Function Attrs: nounwind uwtable
define noalias nonnull ptr @l_IO_Error_mkNoFileOrDirectory___boxed(ptr noundef %0, ptr noundef %1, ptr noundef %2) local_unnamed_addr #0 {
  %4 = ptrtoint ptr %1 to i64
  %5 = and i64 %4, 1
  %.not = icmp eq i64 %5, 0
  br i1 %.not, label %6, label %lean_dec.exit

6:                                                ; preds = %3
  %7 = load i32, ptr %1, align 4, !tbaa !4
  %8 = icmp sgt i32 %7, 1
  br i1 %8, label %9, label %11, !prof !14

9:                                                ; preds = %6
  %10 = add nsw i32 %7, -1
  store i32 %10, ptr %1, align 4, !tbaa !4
  br label %lean_dec.exit

11:                                               ; preds = %6
  %.not.i = icmp eq i32 %7, 0
  br i1 %.not.i, label %lean_dec.exit, label %12

12:                                               ; preds = %11
  tail call void @lean_dec_ref_cold(ptr noundef nonnull %1) #4
  br label %lean_dec.exit

lean_dec.exit:                                    ; preds = %12, %11, %9, %3
  tail call void @lean_inc_heartbeat() #4
  %13 = tail call noalias ptr @mi_malloc_small(i64 noundef 32) #4
  %14 = icmp eq ptr %13, null
  br i1 %14, label %15, label %lean_mk_io_error_no_file_or_directory.exit

15:                                               ; preds = %lean_dec.exit
  tail call void @lean_internal_panic_out_of_memory() #5
  unreachable

lean_mk_io_error_no_file_or_directory.exit:       ; preds = %lean_dec.exit
  %16 = lshr i64 %4, 1
  %17 = trunc i64 %16 to i32
  %18 = getelementptr inbounds nuw i8, ptr %13, i64 4
  %19 = getelementptr inbounds nuw i8, ptr %13, i64 24
  store i64 0, ptr %19, align 8, !tbaa !11
  store i32 1, ptr %13, align 4, !tbaa !4
  store i32 184680480, ptr %18, align 4
  %20 = getelementptr inbounds nuw i8, ptr %13, i64 8
  store ptr %0, ptr %20, align 8, !tbaa !9
  %21 = getelementptr inbounds nuw i8, ptr %13, i64 16
  store ptr %2, ptr %21, align 8, !tbaa !9
  store i32 %17, ptr %19, align 4, !tbaa !13
  ret ptr %13
}